target datalayout = "e-m:e-p270:32:32-p271:32:32-p272:64:64-i64:64-i128:128-f80:128-n8:16:32:64-S128"
target triple = "x86_64-pc-linux-gnu"

%class.OopIterateClosure = type { %class.OopClosure, ptr }
%class.OopClosure = type { ptr }
%class.G1CMIsAliveClosure = type { %class.BoolObjectClosure, ptr }
%class.BoolObjectClosure = type { ptr }
%class.BitMap = type { ptr, i64 }
%class.G1MappingChangedListener = type { ptr }
%class.MemRegion = type { ptr, i64 }
%class.G1CMSubjectToDiscoveryClosure = type { %class.BoolObjectClosure, ptr }
%class.G1STWIsAliveClosure = type { %class.BoolObjectClosure, ptr }
%class.G1ParScanThreadState = type { ptr, ptr, ptr, %class.G1RedirtyCardsLocalQueueSet, ptr, ptr, ptr, %class.AgeTable, i32, [4 x i8], %class.G1ScanEvacuatedObjClosure, i32, i64, i32, i32, %class.TimeInterval, ptr, ptr, i64, i8, i32, %class.PartialArrayTaskStepper, %"class.StringDedup::Requests", i64, ptr, ptr, ptr, ptr, %class.EvacuationFailedInfo, ptr, i64 }
%class.G1RedirtyCardsLocalQueueSet = type { %class.PtrQueueSet, ptr, %struct.BufferNodeList, %"class.G1RedirtyCardsLocalQueueSet::Queue" }
%class.PtrQueueSet = type { ptr, ptr }
%struct.BufferNodeList = type { ptr, ptr, i64 }
%"class.G1RedirtyCardsLocalQueueSet::Queue" = type { %class.PtrQueue }
%class.PtrQueue = type { i64, ptr }
%class.AgeTable = type { [16 x i64], i8, [16 x ptr] }
%class.G1ScanEvacuatedObjClosure = type <{ %class.G1ScanClosureBase, i32, [4 x i8] }>
%class.G1ScanClosureBase = type { %class.BasicOopIterateClosure, ptr, ptr }
%class.BasicOopIterateClosure = type { %class.OopIterateClosure }
%class.TimeInterval = type { %class.CompositeCounterRepresentation }
%class.CompositeCounterRepresentation = type { %class.Representation }
%class.Representation = type { %class.PairRep }
%class.PairRep = type { i64, i64 }
%class.PartialArrayTaskStepper = type { i32, i32 }
%"class.StringDedup::Requests" = type <{ ptr, ptr, i64, i8, [7 x i8] }>
%class.EvacuationFailedInfo = type { %class.CopyFailedInfo.base, [4 x i8] }
%class.CopyFailedInfo.base = type <{ ptr, i64, i64, i64, i32 }>
%class.G1CollectedHeap = type { %class.CollectedHeap, ptr, ptr, ptr, ptr, ptr, %class.TimeInstant, %class.G1HeapRegionSet, %class.G1HeapRegionSet, %class.G1MonotonicArenaMemoryStats, %class.G1MonotonicArenaMemoryStats, ptr, %class.G1RegionMappingChangedListener, ptr, %class.G1HeapRegionManager, ptr, %class.G1YoungGCAllocationFailureInjector, ptr, i64, i64, %class.G1EvacStats, %class.G1EvacStats, ptr, i32, i32, %class.G1CollectorState, i32, i32, %class.G1EdenRegions, %class.G1SurvivorRegions, ptr, ptr, ptr, ptr, %class.G1CollectionSet, ptr, %class.G1CardSetConfiguration, %class.G1MonotonicArenaFreePool, ptr, ptr, ptr, ptr, ptr, %class.G1STWIsAliveClosure, %class.G1STWSubjectToDiscoveryClosure, ptr, %class.G1CMIsAliveClosure, %class.G1CMSubjectToDiscoveryClosure, %class.G1HeapRegionAttrBiasedMappedArray }
%class.CollectedHeap = type { ptr, ptr, i64, i64, %class.SoftRefPolicy, %class.MemRegion, i8, i64, i32, i32, i32, i32, ptr, ptr }
%class.SoftRefPolicy = type { i8, i8 }
%class.TimeInstant = type { %class.CompositeCounterRepresentation }
%class.G1HeapRegionSet = type { %class.G1HeapRegionSetBase.base, [7 x i8] }
%class.G1HeapRegionSetBase.base = type <{ ptr, ptr, i32, [4 x i8], ptr, i8 }>
%class.G1MonotonicArenaMemoryStats = type { [4 x i64], [4 x i64] }
%class.G1RegionMappingChangedListener = type { %class.G1MappingChangedListener }
%class.G1HeapRegionManager = type { ptr, ptr, %class.G1CommittedRegionMap, i32, [4 x i8], %class.G1HeapRegionTable, ptr, ptr, %class.G1FreeRegionList }
%class.G1CommittedRegionMap = type { ptr, %class.CHeapBitMap, %class.CHeapBitMap, i32, i32 }
%class.CHeapBitMap = type <{ %class.GrowableBitMap, i8, [7 x i8] }>
%class.GrowableBitMap = type { %class.BitMap }
%class.G1HeapRegionTable = type { %class.G1BiasedMappedArray.base, [4 x i8] }
%class.G1BiasedMappedArray.base = type { %class.G1BiasedMappedArrayBase.base }
%class.G1BiasedMappedArrayBase.base = type <{ ptr, ptr, ptr, i64, ptr, i64, i32 }>
%class.G1FreeRegionList = type { %class.G1HeapRegionSetBase.base, ptr, ptr, ptr, ptr }
%class.G1YoungGCAllocationFailureInjector = type { i8 }
%class.G1EvacStats = type { %class.PLABStats, i64, i64, %class.AdaptiveWeightedAverage, i64, i32, i64, i64, i64, i64, i64 }
%class.PLABStats = type { ptr, ptr, i64, i64, i64, i64 }
%class.AdaptiveWeightedAverage = type { float, i32, i32, i8, float }
%class.G1CollectorState = type { i8, i8, i8, i8, i8, i8, i8 }
%class.G1EdenRegions = type { i32, i64, %class.G1RegionsOnNodes }
%class.G1RegionsOnNodes = type { ptr, ptr }
%class.G1SurvivorRegions = type { ptr, i64, %class.G1RegionsOnNodes }
%class.G1CollectionSet = type { ptr, ptr, %class.G1CollectionSetCandidates, ptr, i32, i32, i32, i32, i32, %class.G1CollectionCandidateRegionList, i32, i64 }
%class.G1CollectionSetCandidates = type { [8 x i8], %class.G1CollectionCandidateList, %class.G1CollectionCandidateList, ptr, i32, i32 }
%class.G1CollectionCandidateList = type { %class.GrowableArray }
%class.GrowableArray = type { %class.GrowableArrayWithAllocator, %class.GrowableArrayMetadata }
%class.GrowableArrayWithAllocator = type { %class.GrowableArrayView }
%class.GrowableArrayView = type { %class.GrowableArrayBase, ptr }
%class.GrowableArrayBase = type { i32, i32 }
%class.GrowableArrayMetadata = type { i64 }
%class.G1CollectionCandidateRegionList = type { %class.GrowableArray.2 }
%class.GrowableArray.2 = type { %class.GrowableArrayWithAllocator.3, %class.GrowableArrayMetadata }
%class.GrowableArrayWithAllocator.3 = type { %class.GrowableArrayView.4 }
%class.GrowableArrayView.4 = type { %class.GrowableArrayBase, ptr }
%class.G1CardSetConfiguration = type { i32, i32, i32, i32, i32, i32, i32, i32, i32, i32, i32, ptr }
%class.G1MonotonicArenaFreePool = type { i32, ptr }
%class.G1STWSubjectToDiscoveryClosure = type { %class.BoolObjectClosure, ptr }
%class.G1HeapRegionAttrBiasedMappedArray = type { %class.G1BiasedMappedArray.base.6, [4 x i8] }
%class.G1BiasedMappedArray.base.6 = type { %class.G1BiasedMappedArrayBase.base }
%class.G1ParScanThreadStateSet = type { ptr, ptr, %class.G1RedirtyCardsQueueSet, %class.PreservedMarksSet, ptr, ptr, ptr, i32, i8, ptr }
%class.G1RedirtyCardsQueueSet = type { %class.PtrQueueSet, [128 x i8], %class.LockFreeStack, [120 x i8], i64, [120 x i8], ptr }
%class.LockFreeStack = type { ptr }
%class.PreservedMarksSet = type { i8, i32, ptr }
%class.G1BarrierSet = type { %class.CardTableBarrierSet, %"class.BufferNode::Allocator", %"class.BufferNode::Allocator", %class.G1SATBMarkQueueSet, %class.G1DirtyCardQueueSet }
%class.CardTableBarrierSet = type { %class.ModRefBarrierSet, i8, ptr }
%class.ModRefBarrierSet = type { %class.BarrierSet }
%class.BarrierSet = type { ptr, %class.FakeRttiSupport, ptr, ptr, ptr, ptr, ptr }
%class.FakeRttiSupport = type <{ i64, i32, [4 x i8] }>
%"class.BufferNode::Allocator" = type { %"class.BufferNode::AllocatorConfig", %class.FreeListAllocator }
%"class.BufferNode::AllocatorConfig" = type { %class.FreeListConfig, i64 }
%class.FreeListConfig = type { ptr, i64 }
%class.FreeListAllocator = type { ptr, [120 x i8], i64, [120 x i8], %class.LockFreeStack.18, [120 x i8], i8, [127 x i8], i32, [2 x %"class.FreeListAllocator::PendingList"] }
%class.LockFreeStack.18 = type { ptr }
%"class.FreeListAllocator::PendingList" = type { ptr, ptr, i64 }
%class.G1SATBMarkQueueSet = type { %class.SATBMarkQueueSet.base, [7 x i8] }
%class.SATBMarkQueueSet.base = type <{ %class.PtrQueueSet, [128 x i8], %class.PaddedEnd, i64, i64, i64, i8, [96 x i8] }>
%class.PaddedEnd = type { %class.PaddedEndImpl }
%class.PaddedEndImpl = type { %class.LockFreeStack, [120 x i8] }
%class.G1DirtyCardQueueSet = type { %class.PtrQueueSet, [128 x i8], i64, [120 x i8], i64, [120 x i8], %class.NonblockingQueue, [120 x i8], %"class.G1DirtyCardQueueSet::PausedBuffers", %class.G1FreeIdSet, %class.G1ConcurrentRefineStats, %class.G1ConcurrentRefineStats }
%class.NonblockingQueue = type { ptr, [120 x i8], ptr }
%"class.G1DirtyCardQueueSet::PausedBuffers" = type { ptr, [120 x i8] }
%class.G1FreeIdSet = type { %class.Semaphore, ptr, i32, i32, i64, i64 }
%class.Semaphore = type { %class.PosixSemaphore }
%class.PosixSemaphore = type { %union.sem_t }
%union.sem_t = type { i64, [24 x i8] }
%class.G1ConcurrentRefineStats = type { %class.TimeInterval, i64, i64, i64 }

@_ZN10BarrierSet12_barrier_setE = external global ptr, align 8

; Function Attrs: mustprogress nounwind uwtable
define linkonce_odr hidden noundef ptr @_Z16barrier_set_castI12G1BarrierSetEPT_P10BarrierSet(ptr noundef %0) #1 comdat {
  %2 = alloca ptr, align 8
  store ptr %0, ptr %2, align 8
  %3 = load ptr, ptr %2, align 8
  ret ptr %3
}

; Function Attrs: mustprogress nounwind uwtable
define linkonce_odr hidden noundef ptr @_ZN10BarrierSet11barrier_setEv() #1 comdat align 2 {
  %1 = load ptr, ptr @_ZN10BarrierSet12_barrier_setE, align 8
  ret ptr %1
}

; Function Attrs: mustprogress nounwind uwtable
define linkonce_odr hidden noundef ptr @_ZN12G1BarrierSet14g1_barrier_setEv() #1 comdat align 2 {
  %1 = call noundef ptr @_ZN10BarrierSet11barrier_setEv()
  %2 = call noundef ptr @_Z16barrier_set_castI12G1BarrierSetEPT_P10BarrierSet(ptr noundef %1)
  ret ptr %2
}

; Function Attrs: mustprogress nounwind uwtable
define linkonce_odr hidden void @_ZNK22G1RedirtyCardsQueueSet12verify_emptyEv(ptr noundef nonnull align 8 dereferenceable(408) %0) #1 comdat align 2 {
  %2 = alloca ptr, align 8
  store ptr %0, ptr %2, align 8
  ret void
}

; Function Attrs: mustprogress nounwind uwtable
define linkonce_odr hidden noundef ptr @_ZN23G1ParScanThreadStateSet5rdcqsEv(ptr noundef nonnull align 8 dereferenceable(480) %0) #1 comdat align 2 {
  %2 = alloca ptr, align 8
  store ptr %0, ptr %2, align 8
  %3 = load ptr, ptr %2, align 8
  %4 = getelementptr inbounds %class.G1ParScanThreadStateSet, ptr %3, i32 0, i32 2
  ret ptr %4
}

; Function Attrs: mustprogress nounwind uwtable
define linkonce_odr hidden noundef nonnull align 8 dereferenceable(928) ptr @_ZN12G1BarrierSet20dirty_card_queue_setEv() #1 comdat align 2 {
  %1 = call noundef ptr @_ZN12G1BarrierSet14g1_barrier_setEv()
  %2 = getelementptr inbounds %class.G1BarrierSet, ptr %1, i32 0, i32 4
  ret ptr %2
}

; Function Attrs: mustprogress nounwind uwtable
define hidden noundef i64 @_ZNK20G1ParScanThreadState27evac_failure_enqueued_cardsEv(ptr noundef nonnull align 8 dereferenceable(632) %0) #1 align 2 {
  %2 = alloca ptr, align 8
  store ptr %0, ptr %2, align 8
  %3 = load ptr, ptr %2, align 8
  %4 = getelementptr inbounds %class.G1ParScanThreadState, ptr %3, i32 0, i32 30
  %5 = load i64, ptr %4, align 8
  ret i64 %5
}

; Function Attrs: mustprogress nounwind uwtable
define hidden noundef i64 @_ZNK20G1ParScanThreadState20lab_undo_waste_wordsEv(ptr noundef nonnull align 8 dereferenceable(632) %0) #1 align 2 {
  %2 = alloca ptr, align 8
  store ptr %0, ptr %2, align 8
  %3 = load ptr, ptr %2, align 8
  %4 = getelementptr inbounds %class.G1ParScanThreadState, ptr %3, i32 0, i32 6
  %5 = load ptr, ptr %4, align 8
  %6 = call noundef i64 @_ZNK15G1PLABAllocator10undo_wasteEv(ptr noundef nonnull align 8 dereferenceable(136) %5)
  ret i64 %6
}

; Function Attrs: mustprogress nounwind uwtable
define hidden noundef i64 @_ZNK20G1ParScanThreadState15lab_waste_wordsEv(ptr noundef nonnull align 8 dereferenceable(632) %0) #1 align 2 {
  %2 = alloca ptr, align 8
  store ptr %0, ptr %2, align 8
  %3 = load ptr, ptr %2, align 8
  %4 = getelementptr inbounds %class.G1ParScanThreadState, ptr %3, i32 0, i32 6
  %5 = load ptr, ptr %4, align 8
  %6 = call noundef i64 @_ZNK15G1PLABAllocator5wasteEv(ptr noundef nonnull align 8 dereferenceable(136) %5)
  ret i64 %6
}

; Function Attrs: mustprogress nounwind uwtable
define linkonce_odr hidden noundef ptr @_ZNK15G1CollectedHeap11phase_timesEv(ptr noundef nonnull align 8 dereferenceable(1488) %0) #1 comdat align 2 {
  %2 = alloca ptr, align 8
  store ptr %0, ptr %2, align 8
  %3 = load ptr, ptr %2, align 8
  %4 = getelementptr inbounds %class.G1CollectedHeap, ptr %3, i32 0, i32 32
  %5 = load ptr, ptr %4, align 8
  %6 = call noundef ptr @_ZNK8G1Policy11phase_timesEv(ptr noundef nonnull align 8 dereferenceable(552) %5)
  ret ptr %6
}

; Function Attrs: mustprogress nounwind uwtable
define hidden void @_ZN23G1ParScanThreadStateSet11flush_statsEv(ptr noundef nonnull align 8 dereferenceable(480) %0) #1 align 2 {
  %2 = alloca ptr, align 8
  %3 = alloca i32, align 4
  %4 = alloca ptr, align 8
  %5 = alloca ptr, align 8
  %6 = alloca i64, align 8
  %7 = alloca i64, align 8
  %8 = alloca i64, align 8
  %9 = alloca i64, align 8
  %10 = alloca ptr, align 8
  store ptr %0, ptr %2, align 8
  %11 = load ptr, ptr %2, align 8
  store i32 0, ptr %3, align 4
  br label %12

12:                                               ; preds = %71, %1
  %13 = load i32, ptr %3, align 4
  %14 = getelementptr inbounds %class.G1ParScanThreadStateSet, ptr %11, i32 0, i32 7
  %15 = load i32, ptr %14, align 8
  %16 = icmp ult i32 %13, %15
  br i1 %16, label %17, label %74

17:                                               ; preds = %12
  %18 = getelementptr inbounds %class.G1ParScanThreadStateSet, ptr %11, i32 0, i32 4
  %19 = load ptr, ptr %18, align 8
  %20 = load i32, ptr %3, align 4
  %21 = zext i32 %20 to i64
  %22 = getelementptr inbounds ptr, ptr %19, i64 %21
  %23 = load ptr, ptr %22, align 8
  store ptr %23, ptr %4, align 8
  %24 = getelementptr inbounds %class.G1ParScanThreadStateSet, ptr %11, i32 0, i32 0
  %25 = load ptr, ptr %24, align 8
  %26 = call noundef ptr @_ZNK15G1CollectedHeap11phase_timesEv(ptr noundef nonnull align 8 dereferenceable(1488) %25)
  store ptr %26, ptr %5, align 8
  %27 = load ptr, ptr %4, align 8
  %28 = call noundef i64 @_ZNK20G1ParScanThreadState15lab_waste_wordsEv(ptr noundef nonnull align 8 dereferenceable(632) %27)
  %29 = mul i64 %28, 8
  store i64 %29, ptr %6, align 8
  %30 = load ptr, ptr %4, align 8
  %31 = call noundef i64 @_ZNK20G1ParScanThreadState20lab_undo_waste_wordsEv(ptr noundef nonnull align 8 dereferenceable(632) %30)
  %32 = mul i64 %31, 8
  store i64 %32, ptr %7, align 8
  %33 = load ptr, ptr %4, align 8
  %34 = getelementptr inbounds %class.G1ParScanThreadStateSet, ptr %11, i32 0, i32 6
  %35 = load ptr, ptr %34, align 8
  %36 = getelementptr inbounds %class.G1ParScanThreadStateSet, ptr %11, i32 0, i32 7
  %37 = load i32, ptr %36, align 8
  %38 = getelementptr inbounds %class.G1ParScanThreadStateSet, ptr %11, i32 0, i32 5
  %39 = load ptr, ptr %38, align 8
  %40 = load i32, ptr %3, align 4
  %41 = zext i32 %40 to i64
  %42 = getelementptr inbounds %struct.BufferNodeList, ptr %39, i64 %41
  %43 = call noundef i64 @_ZN20G1ParScanThreadState11flush_statsEPmjP14BufferNodeList(ptr noundef nonnull align 8 dereferenceable(632) %33, ptr noundef %35, i32 noundef %37, ptr noundef %42)
  %44 = mul i64 %43, 8
  store i64 %44, ptr %8, align 8
  %45 = load ptr, ptr %4, align 8
  %46 = call noundef i64 @_ZNK20G1ParScanThreadState27evac_failure_enqueued_cardsEv(ptr noundef nonnull align 8 dereferenceable(632) %45)
  store i64 %46, ptr %9, align 8
  %47 = load ptr, ptr %5, align 8
  %48 = load i32, ptr %3, align 4
  %49 = load i64, ptr %8, align 8
  call void @_ZN14G1GCPhaseTimes30record_or_add_thread_work_itemENS_11GCParPhasesEjmj(ptr noundef nonnull align 8 dereferenceable(872) %47, i32 noundef 34, i32 noundef %48, i64 noundef %49, i32 noundef 0)
  %50 = load ptr, ptr %5, align 8
  %51 = load i32, ptr %3, align 4
  %52 = load i64, ptr %6, align 8
  call void @_ZN14G1GCPhaseTimes30record_or_add_thread_work_itemENS_11GCParPhasesEjmj(ptr noundef nonnull align 8 dereferenceable(872) %50, i32 noundef 34, i32 noundef %51, i64 noundef %52, i32 noundef 2)
  %53 = load ptr, ptr %5, align 8
  %54 = load i32, ptr %3, align 4
  %55 = load i64, ptr %7, align 8
  call void @_ZN14G1GCPhaseTimes30record_or_add_thread_work_itemENS_11GCParPhasesEjmj(ptr noundef nonnull align 8 dereferenceable(872) %53, i32 noundef 34, i32 noundef %54, i64 noundef %55, i32 noundef 3)
  %56 = load ptr, ptr %5, align 8
  %57 = load i32, ptr %3, align 4
  %58 = load i64, ptr %9, align 8
  call void @_ZN14G1GCPhaseTimes30record_or_add_thread_work_itemENS_11GCParPhasesEjmj(ptr noundef nonnull align 8 dereferenceable(872) %56, i32 noundef 34, i32 noundef %57, i64 noundef %58, i32 noundef 4)
  %59 = load ptr, ptr %4, align 8
  %60 = icmp eq ptr %59, null
  br i1 %60, label %65, label %61

61:                                               ; preds = %17
  %62 = load ptr, ptr %59, align 8
  %63 = getelementptr inbounds ptr, ptr %62, i64 1
  %64 = load ptr, ptr %63, align 8
  call void %64(ptr noundef nonnull align 8 dereferenceable(632) %59) #10
  br label %65

65:                                               ; preds = %61, %17
  %66 = getelementptr inbounds %class.G1ParScanThreadStateSet, ptr %11, i32 0, i32 4
  %67 = load ptr, ptr %66, align 8
  %68 = load i32, ptr %3, align 4
  %69 = zext i32 %68 to i64
  %70 = getelementptr inbounds ptr, ptr %67, i64 %69
  store ptr null, ptr %70, align 8
  br label %71

71:                                               ; preds = %65
  %72 = load i32, ptr %3, align 4
  %73 = add i32 %72, 1
  store i32 %73, ptr %3, align 4
  br label %12, !llvm.loop !14

74:                                               ; preds = %12
  %75 = call noundef nonnull align 8 dereferenceable(928) ptr @_ZN12G1BarrierSet20dirty_card_queue_setEv()
  store ptr %75, ptr %10, align 8
  %76 = load ptr, ptr %10, align 8
  %77 = call noundef ptr @_ZN23G1ParScanThreadStateSet5rdcqsEv(ptr noundef nonnull align 8 dereferenceable(480) %11)
  call void @_ZN19G1DirtyCardQueueSet17merge_bufferlistsEP22G1RedirtyCardsQueueSet(ptr noundef nonnull align 8 dereferenceable(928) %76, ptr noundef %77)
  %78 = call noundef ptr @_ZN23G1ParScanThreadStateSet5rdcqsEv(ptr noundef nonnull align 8 dereferenceable(480) %11)
  call void @_ZNK22G1RedirtyCardsQueueSet12verify_emptyEv(ptr noundef nonnull align 8 dereferenceable(408) %78)
  %79 = getelementptr inbounds %class.G1ParScanThreadStateSet, ptr %11, i32 0, i32 8
  store i8 1, ptr %79, align 4
  ret void
}