; Function Attrs: mustprogress nounwind uwtable
define hidden void @_ZN23G1ParScanThreadStateSet11flush_statsEv(ptr noundef nonnull align 8 dereferenceable(480) %0) local_unnamed_addr #0 align 2 {
  %2 = getelementptr inbounds i8, ptr %0, i64 464
  %3 = load i32, ptr %2, align 8
  %.not = icmp eq i32 %3, 0
  br i1 %.not, label %._crit_edge, label %.lr.ph

.lr.ph:                                           ; preds = %1
  %4 = getelementptr inbounds i8, ptr %0, i64 440
  %5 = getelementptr inbounds i8, ptr %0, i64 456
  %6 = getelementptr inbounds i8, ptr %0, i64 448
  br label %7

7:                                                ; preds = %.lr.ph, %7
  %indvars.iv = phi i64 [ 0, %.lr.ph ], [ %indvars.iv.next, %7 ]
  %8 = load ptr, ptr %4, align 8
  %9 = getelementptr inbounds ptr, ptr %8, i64 %indvars.iv
  %10 = load ptr, ptr %9, align 8
  %11 = load ptr, ptr %0, align 8
  %12 = getelementptr inbounds i8, ptr %11, i64 1064
  %13 = load ptr, ptr %12, align 8
  %14 = tail call noundef ptr @_ZNK8G1Policy11phase_timesEv(ptr noundef nonnull align 8 dereferenceable(552) %13) #13
  %15 = getelementptr inbounds i8, ptr %10, i64 104
  %16 = load ptr, ptr %15, align 8
  %17 = tail call noundef i64 @_ZNK15G1PLABAllocator5wasteEv(ptr noundef nonnull align 8 dereferenceable(136) %16) #13
  %18 = shl i64 %17, 3
  %19 = load ptr, ptr %15, align 8
  %20 = tail call noundef i64 @_ZNK15G1PLABAllocator10undo_wasteEv(ptr noundef nonnull align 8 dereferenceable(136) %19) #13
  %21 = shl i64 %20, 3
  %22 = load ptr, ptr %5, align 8
  %23 = load i32, ptr %2, align 8
  %24 = load ptr, ptr %6, align 8
  %25 = getelementptr inbounds %struct.BufferNodeList, ptr %24, i64 %indvars.iv
  %26 = tail call noundef i64 @_ZN20G1ParScanThreadState11flush_statsEPmjP14BufferNodeList(ptr noundef nonnull align 8 dereferenceable(632) %10, ptr noundef %22, i32 noundef %23, ptr noundef %25)
  %27 = shl i64 %26, 3
  %28 = getelementptr inbounds i8, ptr %10, i64 624
  %29 = load i64, ptr %28, align 8
  %30 = trunc nuw i64 %indvars.iv to i32
  tail call void @_ZN14G1GCPhaseTimes30record_or_add_thread_work_itemENS_11GCParPhasesEjmj(ptr noundef nonnull align 8 dereferenceable(872) %14, i32 noundef 34, i32 noundef %30, i64 noundef %27, i32 noundef 0) #13
  tail call void @_ZN14G1GCPhaseTimes30record_or_add_thread_work_itemENS_11GCParPhasesEjmj(ptr noundef nonnull align 8 dereferenceable(872) %14, i32 noundef 34, i32 noundef %30, i64 noundef %18, i32 noundef 2) #13
  tail call void @_ZN14G1GCPhaseTimes30record_or_add_thread_work_itemENS_11GCParPhasesEjmj(ptr noundef nonnull align 8 dereferenceable(872) %14, i32 noundef 34, i32 noundef %30, i64 noundef %21, i32 noundef 3) #13
  tail call void @_ZN14G1GCPhaseTimes30record_or_add_thread_work_itemENS_11GCParPhasesEjmj(ptr noundef nonnull align 8 dereferenceable(872) %14, i32 noundef 34, i32 noundef %30, i64 noundef %29, i32 noundef 4) #13
  %31 = load ptr, ptr %10, align 8
  %32 = getelementptr inbounds i8, ptr %31, i64 8
  %33 = load ptr, ptr %32, align 8
  tail call void %33(ptr noundef nonnull align 8 dereferenceable(632) %10) #13
  %34 = load ptr, ptr %4, align 8
  %35 = getelementptr inbounds ptr, ptr %34, i64 %indvars.iv
  store ptr null, ptr %35, align 8
  %indvars.iv.next = add nuw nsw i64 %indvars.iv, 1
  %36 = load i32, ptr %2, align 8
  %37 = zext i32 %36 to i64
  %38 = icmp ult i64 %indvars.iv.next, %37
  br i1 %38, label %7, label %._crit_edge, !llvm.loop !17

._crit_edge:                                      ; preds = %7, %1
  %39 = load ptr, ptr @_ZN10BarrierSet12_barrier_setE, align 8
  %40 = getelementptr inbounds i8, ptr %39, i64 1664
  %41 = getelementptr inbounds i8, ptr %0, i64 16
  tail call void @_ZN19G1DirtyCardQueueSet17merge_bufferlistsEP22G1RedirtyCardsQueueSet(ptr noundef nonnull align 8 dereferenceable(928) %40, ptr noundef nonnull %41) #13
  %42 = getelementptr inbounds i8, ptr %0, i64 468
  store i8 1, ptr %42, align 4
  ret void
}